; ModuleID = 'bench/linux/original/once.ll'
source_filename = "bench/linux/original/once.ll"
target datalayout = "e-m:e-p270:32:32-p271:32:32-p272:64:64-i64:64-i128:128-f80:128-n8:16:32:64-S128"
target triple = "x86_64-unknown-linux-gnu"

module asm ".section \22.export_symbol\22,\22a\22 ; __export_symbol___do_once_start: ; .asciz \22\22 ; .asciz \22\22 ; .balign 8 ; .quad __do_once_start ; .previous"
module asm ".section \22.export_symbol\22,\22a\22 ; __export_symbol___do_once_done: ; .asciz \22\22 ; .asciz \22\22 ; .balign 8 ; .quad __do_once_done ; .previous"
module asm ".section \22.export_symbol\22,\22a\22 ; __export_symbol___do_once_sleepable_start: ; .asciz \22\22 ; .asciz \22\22 ; .balign 8 ; .quad __do_once_sleepable_start ; .previous"
module asm ".section \22.export_symbol\22,\22a\22 ; __export_symbol___do_once_sleepable_done: ; .asciz \22\22 ; .asciz \22\22 ; .balign 8 ; .quad __do_once_sleepable_done ; .previous"

%struct.spinlock = type { %union.anon }
%union.anon = type { %struct.raw_spinlock }
%struct.raw_spinlock = type { %struct.qspinlock }
%struct.qspinlock = type { %union.anon.0 }
%union.anon.0 = type { %struct.atomic_t }
%struct.atomic_t = type { i32 }
%struct.mutex = type { %struct.atomic64_t, %struct.raw_spinlock, %struct.optimistic_spin_queue, %struct.list_head }
%struct.atomic64_t = type { i64 }
%struct.optimistic_spin_queue = type { %struct.atomic_t }
%struct.list_head = type { ptr, ptr }

@once_lock = internal global %struct.spinlock zeroinitializer, align 4
@__UNIQUE_ID___addressable___do_once_start304 = internal global ptr @__do_once_start, section ".discard.addressable", align 8
@__UNIQUE_ID___addressable___do_once_done305 = internal global ptr @__do_once_done, section ".discard.addressable", align 8
@once_mutex = internal global %struct.mutex { %struct.atomic64_t zeroinitializer, %struct.raw_spinlock zeroinitializer, %struct.optimistic_spin_queue zeroinitializer, %struct.list_head { ptr getelementptr (i8, ptr @once_mutex, i64 16), ptr getelementptr (i8, ptr @once_mutex, i64 16) } }, align 8
@__UNIQUE_ID___addressable___do_once_sleepable_start306 = internal global ptr @__do_once_sleepable_start, section ".discard.addressable", align 8
@__UNIQUE_ID___addressable___do_once_sleepable_done307 = internal global ptr @__do_once_sleepable_done, section ".discard.addressable", align 8
@kmalloc_caches = external dso_local local_unnamed_addr global [3 x [14 x ptr]], align 16
@.str.1 = private unnamed_addr constant [11 x i8] c"lib/once.c\00", align 1
@system_wq = external dso_local local_unnamed_addr global ptr, align 8
@llvm.compiler.used = appending global [4 x ptr] [ptr @__UNIQUE_ID___addressable___do_once_done305, ptr @__UNIQUE_ID___addressable___do_once_sleepable_done307, ptr @__UNIQUE_ID___addressable___do_once_sleepable_start306, ptr @__UNIQUE_ID___addressable___do_once_start304], section "llvm.metadata"

; Function Attrs: fn_ret_thunk_extern nounwind null_pointer_is_valid
define dso_local noundef zeroext i1 @__do_once_start(ptr nocapture noundef readonly %0, ptr nocapture noundef writeonly %1) #0 align 16 {
  %3 = tail call i64 @_raw_spin_lock_irqsave(ptr noundef nonnull @once_lock) #3
  store i64 %3, ptr %1, align 8
  %4 = load i8, ptr %0, align 1, !range !5, !noundef !6
  %5 = icmp eq i8 %4, 0
  br i1 %5, label %7, label %6

6:                                                ; preds = %2
  tail call void @_raw_spin_unlock_irqrestore(ptr noundef nonnull @once_lock, i64 noundef %3) #3
  br label %7

7:                                                ; preds = %6, %2
  ret i1 %5
}

; Function Attrs: null_pointer_is_valid
declare dso_local i64 @_raw_spin_lock_irqsave(ptr noundef) local_unnamed_addr #1 section ".spinlock.text"

; Function Attrs: fn_ret_thunk_extern nounwind null_pointer_is_valid
define dso_local void @__do_once_done(ptr nocapture noundef writeonly %0, ptr noundef %1, ptr nocapture noundef readonly %2, ptr noundef %3) #0 align 16 {
  store i8 1, ptr %0, align 1
  %5 = load i64, ptr %2, align 8
  tail call void @_raw_spin_unlock_irqrestore(ptr noundef nonnull @once_lock, i64 noundef %5) #3
  %6 = load ptr, ptr getelementptr inbounds ([3 x [14 x ptr]], ptr @kmalloc_caches, i64 0, i64 0, i64 6), align 16
  %7 = tail call noalias align 8 dereferenceable_or_null(48) ptr @kmalloc_trace(ptr noundef %6, i32 noundef 2080, i64 noundef 48) #4
  %8 = icmp eq ptr %7, null
  br i1 %8, label %17, label %9

9:                                                ; preds = %4
  store i64 68719476704, ptr %7, align 8
  %10 = getelementptr inbounds i8, ptr %7, i64 8
  store volatile ptr %10, ptr %10, align 8
  %11 = getelementptr inbounds i8, ptr %7, i64 16
  store volatile ptr %10, ptr %11, align 8
  %12 = getelementptr inbounds i8, ptr %7, i64 24
  store ptr @once_deferred, ptr %12, align 8
  %13 = getelementptr inbounds i8, ptr %7, i64 32
  store ptr %1, ptr %13, align 8
  %14 = getelementptr inbounds i8, ptr %7, i64 40
  store ptr %3, ptr %14, align 8
  tail call void @__module_get(ptr noundef %3) #3
  %15 = load ptr, ptr @system_wq, align 8
  %16 = tail call zeroext i1 @queue_work_on(i32 noundef 64, ptr noundef %15, ptr noundef nonnull %7) #3
  br label %17

17:                                               ; preds = %9, %4
  ret void
}

; Function Attrs: fn_ret_thunk_extern nounwind null_pointer_is_valid
define dso_local noundef zeroext i1 @__do_once_sleepable_start(ptr nocapture noundef readonly %0) #0 align 16 {
  tail call void @mutex_lock(ptr noundef nonnull @once_mutex) #3
  %2 = load i8, ptr %0, align 1, !range !5, !noundef !6
  %3 = icmp eq i8 %2, 0
  br i1 %3, label %5, label %4

4:                                                ; preds = %1
  tail call void @mutex_unlock(ptr noundef nonnull @once_mutex) #3
  br label %5

5:                                                ; preds = %4, %1
  ret i1 %3
}

; Function Attrs: null_pointer_is_valid
declare dso_local void @mutex_lock(ptr noundef) local_unnamed_addr #1

; Function Attrs: null_pointer_is_valid
declare dso_local void @mutex_unlock(ptr noundef) local_unnamed_addr #1

; Function Attrs: fn_ret_thunk_extern nounwind null_pointer_is_valid
define dso_local void @__do_once_sleepable_done(ptr nocapture noundef writeonly %0, ptr noundef %1, ptr noundef %2) #0 align 16 {
  store i8 1, ptr %0, align 1
  tail call void @mutex_unlock(ptr noundef nonnull @once_mutex) #3
  %4 = load ptr, ptr getelementptr inbounds ([3 x [14 x ptr]], ptr @kmalloc_caches, i64 0, i64 0, i64 6), align 16
  %5 = tail call noalias align 8 dereferenceable_or_null(48) ptr @kmalloc_trace(ptr noundef %4, i32 noundef 2080, i64 noundef 48) #4
  %6 = icmp eq ptr %5, null
  br i1 %6, label %15, label %7

7:                                                ; preds = %3
  store i64 68719476704, ptr %5, align 8
  %8 = getelementptr inbounds i8, ptr %5, i64 8
  store volatile ptr %8, ptr %8, align 8
  %9 = getelementptr inbounds i8, ptr %5, i64 16
  store volatile ptr %8, ptr %9, align 8
  %10 = getelementptr inbounds i8, ptr %5, i64 24
  store ptr @once_deferred, ptr %10, align 8
  %11 = getelementptr inbounds i8, ptr %5, i64 32
  store ptr %1, ptr %11, align 8
  %12 = getelementptr inbounds i8, ptr %5, i64 40
  store ptr %2, ptr %12, align 8
  tail call void @__module_get(ptr noundef %2) #3
  %13 = load ptr, ptr @system_wq, align 8
  %14 = tail call zeroext i1 @queue_work_on(i32 noundef 64, ptr noundef %13, ptr noundef nonnull %5) #3
  br label %15

15:                                               ; preds = %7, %3
  ret void
}

; Function Attrs: null_pointer_is_valid
declare dso_local void @_raw_spin_unlock_irqrestore(ptr noundef, i64 noundef) local_unnamed_addr #1 section ".spinlock.text"

; Function Attrs: fn_ret_thunk_extern nounwind null_pointer_is_valid
define internal void @once_deferred(ptr noundef %0) #0 align 16 {
  %2 = getelementptr inbounds i8, ptr %0, i64 32
  %3 = load ptr, ptr %2, align 8
  %4 = tail call i32 @static_key_count(ptr noundef %3) #3
  %5 = icmp slt i32 %4, 1
  br i1 %5, label %6, label %7, !prof !7

6:                                                ; preds = %1
  tail call void asm sideeffect "303: nop\0A\09.pushsection .discard.instr_begin\0A\09.long 303b - .\0A\09.popsection\0A\09", "i,~{dirflag},~{fpsr},~{flags}"(i32 303) #3, !srcloc !8
  tail call void asm sideeffect "1:\09.byte 0x0f, 0x0b\0A.pushsection __bug_table,\22aw\22\0A2:\09.long 1b - .\09# bug_entry::bug_addr\0A\09.long ${0:c} - .\09# bug_entry::file\0A\09.word ${1:c}\09# bug_entry::line\0A\09.word ${2:c}\09# bug_entry::flags\0A\09.org 2b+${3:c}\0A.popsection\0A", "i,i,i,i,~{dirflag},~{fpsr},~{flags}"(ptr nonnull @.str.1, i32 19, i32 0, i64 12) #3, !srcloc !9
  unreachable

7:                                                ; preds = %1
  %8 = load ptr, ptr %2, align 8
  tail call void @static_key_disable(ptr noundef %8) #3
  %9 = getelementptr inbounds i8, ptr %0, i64 40
  %10 = load ptr, ptr %9, align 8
  tail call void @module_put(ptr noundef %10) #3
  tail call void @kfree(ptr noundef %0) #3
  ret void
}

; Function Attrs: null_pointer_is_valid
declare dso_local void @__module_get(ptr noundef) local_unnamed_addr #1

; Function Attrs: null_pointer_is_valid allocsize(2)
declare dso_local noalias ptr @kmalloc_trace(ptr noundef, i32 noundef, i64 noundef) local_unnamed_addr #2

; Function Attrs: null_pointer_is_valid
declare dso_local i32 @static_key_count(ptr noundef) local_unnamed_addr #1

; Function Attrs: null_pointer_is_valid
declare dso_local void @static_key_disable(ptr noundef) local_unnamed_addr #1

; Function Attrs: null_pointer_is_valid
declare dso_local void @module_put(ptr noundef) local_unnamed_addr #1

; Function Attrs: null_pointer_is_valid
declare dso_local void @kfree(ptr noundef) local_unnamed_addr #1

; Function Attrs: null_pointer_is_valid
declare dso_local zeroext i1 @queue_work_on(i32 noundef, ptr noundef, ptr noundef) local_unnamed_addr #1


!llvm.module.flags = !{!0, !1, !2, !3, !4}

!0 = !{i32 1, !"wchar_size", i32 2}
!1 = !{i32 8, !"cf-protection-branch", i32 1}
!2 = !{i32 4, !"function_return_thunk_extern", i32 1}
!3 = !{i32 4, !"indirect_branch_cs_prefix", i32 1}
!4 = !{i32 4, !"SkipRaxSetup", i32 1}
!5 = !{i8 0, i8 2}
!6 = !{}
!7 = !{!"branch_weights", i32 1, i32 2000}
!8 = !{i64 2153740165, i64 2153739974, i64 2153740026, i64 2153740072, i64 2153740100}
!9 = !{i64 2153740239, i64 2153740268, i64 2153740314, i64 2153740372, i64 2153740426, i64 2153740480, i64 2153740535, i64 2153740566}
